(dp0
S'cookies'
p1
(dp2
S'wxloadtime'
p3
S'1504419930'
p4
sS'webwx_data_ticket'
p5
S'gScHNEzt8ogIZT/n0l7u6vt0'
p6
sS'wxuin'
p7
S'3337351302'
p8
sS'login_frequency'
p9
S'2'
p10
sS'MM_WX_NOTIFY_STATE'
p11
S'1'
p12
sS'MM_WX_SOUND_STATE'
p13
g12
sS'webwx_auth_ticket'
p14
S'CIsBEP/m5MIMGoABpTGPhYL1NkmB30MN3L42+XyTHdvQJDps06hMtw35B+1cxgaW5Z8uDYHEBujOWJf1cZ3sa195LwLN7Cv/T4BTtamF7jcRP5rZH9p+yhDjNp6rc9sFu9aCgVo/+Py6kE0663JWxX51ZROId+y12JuZPNmPbGNPRE6JQKabuAuqtdE='
p15
sS'last_wxuin'
p16
S'3337351302'
p17
sS'webwxuvid'
p18
S'cdec48ee924107364f9577bfeb9a805ea8f30ab4072d66dd75ca5b1270b6a2353a80ac2c85a02546da2278fa7a523c1a'
p19
sS'wxpluginkey'
p20
S'1504238284'
p21
sS'wxsid'
p22
S'd4JzXCTQxcW7tj0C'
p23
sS'mm_lang'
p24
S'zh_CN'
p25
ssS'version'
p26
S'1.2.32'
p27
sS'storage'
p28
(dp29
S'userName'
p30
V@02765fbefa9fa72078ca0f6497052f5761052cee33d5900f528d5dd457ae3214
p31
sS'lastInputUserName'
p32
NsS'memberList'
p33
(lp34
(dp35
S'UserName'
p36
g31
sS'City'
p37
S''
p38
sS'DisplayName'
p39
g38
sS'UniFriend'
p40
I0
sS'MemberList'
p41
(lp42
sS'PYQuanPin'
p43
V
p44
sS'RemarkPYInitial'
p45
g44
sS'Sex'
p46
I1
sS'AppAccountFlag'
p47
I0
sS'VerifyFlag'
p48
I0
sS'Province'
p49
g38
sS'KeyWord'
p50
g38
sS'RemarkName'
p51
g44
sS'PYInitial'
p52
g44
sS'ChatRoomId'
p53
I0
sS'HideInputBarFlag'
p54
I0
sVHeadImgFlag
p55
I1
sS'EncryChatRoomId'
p56
g38
sS'AttrStatus'
p57
I0
sVWebWxPluginSwitch
p58
I0
sS'SnsFlag'
p59
I0
sS'MemberCount'
p60
I0
sS'OwnerUin'
p61
I0
sS'Alias'
p62
g38
sS'Signature'
p63
g44
sS'ContactFlag'
p64
I0
sS'NickName'
p65
VwxRobot
p66
sS'RemarkPYQuanPin'
p67
g44
sS'HeadImgUrl'
p68
V/cgi-bin/mmwebwx-bin/webwxgeticon?seq=2032166449&username=@02765fbefa9fa72078ca0f6497052f5761052cee33d5900f528d5dd457ae3214&skey=@crypt_83708393_e8e72d05a76f799207de6a78d5fb191d
p69
sS'Uin'
p70
L3337351302L
sS'StarFriend'
p71
I0
sS'Statues'
p72
I0
sa(dp73
VUserName
p74
V@959104a78c108126362416c1ec7a6b3d5e18273ef603e481e57c6713ad5380c5
p75
sVCity
p76
V\u6d1b\u9633
p77
sVDisplayName
p78
g44
sVUniFriend
p79
I0
sVMemberList
p80
(lp81
sVPYQuanPin
p82
VKorn
p83
sVRemarkPYInitial
p84
g44
sVUin
p85
I0
sVAppAccountFlag
p86
I0
sVVerifyFlag
p87
I0
sVProvince
p88
V\u6cb3\u5357
p89
sVKeyWord
p90
g44
sVRemarkName
p91
g44
sVPYInitial
p92
VKORN
p93
sVChatRoomId
p94
I0
sVIsOwner
p95
I0
sVHideInputBarFlag
p96
I0
sVEncryChatRoomId
p97
g44
sVAttrStatus
p98
I33624103
sVSnsFlag
p99
I17
sVMemberCount
p100
I0
sVOwnerUin
p101
I0
sVAlias
p102
g44
sVSignature
p103
V\u5927\u9053\u81f3\u7b80
p104
sVContactFlag
p105
I3
sVNickName
p106
VKorn
p107
sVRemarkPYQuanPin
p108
g44
sVHeadImgUrl
p109
V/cgi-bin/mmwebwx-bin/webwxgeticon?seq=631622459&username=@959104a78c108126362416c1ec7a6b3d5e18273ef603e481e57c6713ad5380c5&skey=@crypt_83708393_e8e72d05a76f799207de6a78d5fb191d
p110
sVSex
p111
I1
sVStarFriend
p112
I0
sVStatues
p113
I0
sa(dp114
VUserName
p115
V@01063ca39b78df75aaf4639b42fbf3febd8081106c33242327a3d3198dfaa65d
p116
sVCity
p117
V\u8679\u53e3
p118
sVDisplayName
p119
g44
sVUniFriend
p120
I0
sVMemberList
p121
(lp122
sVPYQuanPin
p123
Vyi
p124
sVRemarkPYInitial
p125
g44
sVUin
p126
I0
sVAppAccountFlag
p127
I0
sVVerifyFlag
p128
I0
sVProvince
p129
V\u4e0a\u6d77
p130
sVKeyWord
p131
g44
sVRemarkName
p132
g44
sVPYInitial
p133
VY
p134
sVChatRoomId
p135
I0
sVIsOwner
p136
I0
sVHideInputBarFlag
p137
I0
sVEncryChatRoomId
p138
g44
sVAttrStatus
p139
I135269
sVSnsFlag
p140
I17
sVMemberCount
p141
I0
sVOwnerUin
p142
I0
sVAlias
p143
g44
sVSignature
p144
V:-P
p145
sVContactFlag
p146
I3
sVNickName
p147
V\u4e00
p148
sVRemarkPYQuanPin
p149
g44
sVHeadImgUrl
p150
V/cgi-bin/mmwebwx-bin/webwxgeticon?seq=631622603&username=@01063ca39b78df75aaf4639b42fbf3febd8081106c33242327a3d3198dfaa65d&skey=@crypt_83708393_e8e72d05a76f799207de6a78d5fb191d
p151
sVSex
p152
I1
sVStarFriend
p153
I0
sVStatues
p154
I0
sa(dp155
VUserName
p156
V@48f892a0aee4ec250011dca74eacb4060f5e75be81e4aacf892a558b104a6edd
p157
sVCity
p158
V\u5468\u53e3
p159
sVDisplayName
p160
g44
sVUniFriend
p161
I0
sVMemberList
p162
(lp163
sVPYQuanPin
p164
Vzhangxu
p165
sVRemarkPYInitial
p166
g44
sVUin
p167
I0
sVAppAccountFlag
p168
I0
sVVerifyFlag
p169
I0
sVProvince
p170
V\u6cb3\u5357
p171
sVKeyWord
p172
g44
sVRemarkName
p173
g44
sVPYInitial
p174
VZX
p175
sVChatRoomId
p176
I0
sVIsOwner
p177
I0
sVHideInputBarFlag
p178
I0
sVEncryChatRoomId
p179
g44
sVAttrStatus
p180
I102437
sVSnsFlag
p181
I0
sVMemberCount
p182
I0
sVOwnerUin
p183
I0
sVAlias
p184
g44
sVSignature
p185
V\u5443\u5443
p186
sVContactFlag
p187
I3
sVNickName
p188
V\u5f20\u65ed
p189
sVRemarkPYQuanPin
p190
g44
sVHeadImgUrl
p191
V/cgi-bin/mmwebwx-bin/webwxgeticon?seq=631622622&username=@48f892a0aee4ec250011dca74eacb4060f5e75be81e4aacf892a558b104a6edd&skey=@crypt_83708393_e8e72d05a76f799207de6a78d5fb191d
p192
sVSex
p193
I1
sVStarFriend
p194
I0
sVStatues
p195
I0
sa(dp196
VUserName
p197
V@e80ddae1bc6b05dcaf817154b57a7706db52b16e82442c11e571de0642cc6232
p198
sVCity
p199
g44
sVDisplayName
p200
g44
sVUniFriend
p201
I0
sVMemberList
p202
(lp203
sVPYQuanPin
p204
Vlixizhu
p205
sVRemarkPYInitial
p206
g44
sVUin
p207
I0
sVAppAccountFlag
p208
I0
sVVerifyFlag
p209
I0
sVProvince
p210
g44
sVKeyWord
p211
g44
sVRemarkName
p212
g44
sVPYInitial
p213
VLXZ
p214
sVChatRoomId
p215
I0
sVIsOwner
p216
I0
sVHideInputBarFlag
p217
I0
sVEncryChatRoomId
p218
g44
sVAttrStatus
p219
I4133
sVSnsFlag
p220
I1
sVMemberCount
p221
I0
sVOwnerUin
p222
I0
sVAlias
p223
g44
sVSignature
p224
g44
sVContactFlag
p225
I3
sVNickName
p226
V\u674e\u559c\u7af9
p227
sVRemarkPYQuanPin
p228
g44
sVHeadImgUrl
p229
V/cgi-bin/mmwebwx-bin/webwxgeticon?seq=631622724&username=@e80ddae1bc6b05dcaf817154b57a7706db52b16e82442c11e571de0642cc6232&skey=@crypt_83708393_e8e72d05a76f799207de6a78d5fb191d
p230
sVSex
p231
I0
sVStarFriend
p232
I0
sVStatues
p233
I0
sasS'chatroomList'
p234
(lp235
(dp236
VUserName
p237
V@@3e61a3a593c9b39685efedbb630a18238af82e2f586161863a41714f643dba1c
p238
sVCity
p239
g44
sVDisplayName
p240
g44
sVUniFriend
p241
I0
sS'self'
p242
(dp243
g36
g31
sg37
g38
sg39
g38
sg40
I0
sg61
I0
sg41
(lp244
sg43
g44
sg45
g44
sg70
L3337351302L
sg47
I0
sg48
I0
sg49
g38
sg50
g38
sg51
g44
sg52
g44
sg53
I0
sg54
I0
sg55
I1
sg56
g38
sg57
I0
sg59
I0
sg60
I0
sg58
I0
sg62
g38
sg63
g44
sg64
I0
sg65
g66
sg67
g44
sg68
g69
sg46
I1
sg71
I0
sg72
I0
ssVMemberList
p245
(lp246
sVPYQuanPin
p247
g44
sVRemarkPYInitial
p248
g44
sVSex
p249
I0
sVAppAccountFlag
p250
I0
sVVerifyFlag
p251
I0
sVProvince
p252
g44
sVKeyWord
p253
g44
sVRemarkName
p254
g44
sVPYInitial
p255
g44
sVIsOwner
p256
I0
sVChatRoomId
p257
I0
sVHideInputBarFlag
p258
I0
sVEncryChatRoomId
p259
g44
sVAttrStatus
p260
I0
sVSnsFlag
p261
I0
sVMemberCount
p262
I196
sVOwnerUin
p263
I0
sVAlias
p264
g44
sVSignature
p265
g44
sVContactFlag
p266
I0
sVNickName
p267
V\u8d3a\u592a\u6069(\u5317\u4eac)\u7269\u8054\u79d1\u6280\u7fa4
p268
sVRemarkPYQuanPin
p269
g44
sVHeadImgUrl
p270
V/cgi-bin/mmwebwx-bin/webwxgetheadimg?seq=0&username=@@3e61a3a593c9b39685efedbb630a18238af82e2f586161863a41714f643dba1c&skey=@crypt_83708393_e8e72d05a76f799207de6a78d5fb191d
p271
sVUin
p272
I0
sVStarFriend
p273
I0
sVStatues
p274
I0
sS'isAdmin'
p275
Nsa(dp276
VUserName
p277
V@@5133135983ca70f5d7318d7e34dac3a0fcdc4ff142ef5ef1c16c952e7effaa6f
p278
sVCity
p279
g44
sVDisplayName
p280
g44
sVUniFriend
p281
I0
sg242
(dp282
g36
g31
sg37
g38
sg39
g38
sg40
I0
sg61
I0
sg41
(lp283
sg43
g44
sg45
g44
sg70
L3337351302L
sg47
I0
sg48
I0
sg49
g38
sg50
g38
sg51
g44
sg52
g44
sg53
I0
sg54
I0
sg55
I1
sg56
g38
sg57
I0
sg59
I0
sg60
I0
sg58
I0
sg62
g38
sg63
g44
sg64
I0
sg65
g66
sg67
g44
sg68
g69
sg46
I1
sg71
I0
sg72
I0
ssVMemberList
p284
(lp285
sVPYQuanPin
p286
g44
sVRemarkPYInitial
p287
g44
sVSex
p288
I0
sVAppAccountFlag
p289
I0
sVVerifyFlag
p290
I0
sVProvince
p291
g44
sVKeyWord
p292
g44
sVRemarkName
p293
g44
sVPYInitial
p294
g44
sVIsOwner
p295
I0
sVChatRoomId
p296
I0
sVHideInputBarFlag
p297
I0
sVEncryChatRoomId
p298
g44
sVAttrStatus
p299
I0
sVSnsFlag
p300
I0
sVMemberCount
p301
I66
sVOwnerUin
p302
I0
sVAlias
p303
g44
sVSignature
p304
g44
sVContactFlag
p305
I0
sVNickName
p306
V\u5f20\u7389\u534e(\u5317\u4eac)\u7269\u8054\u7f51\u6838\u5fc3\u7fa4
p307
sVRemarkPYQuanPin
p308
g44
sVHeadImgUrl
p309
V/cgi-bin/mmwebwx-bin/webwxgetheadimg?seq=0&username=@@5133135983ca70f5d7318d7e34dac3a0fcdc4ff142ef5ef1c16c952e7effaa6f&skey=@crypt_83708393_e8e72d05a76f799207de6a78d5fb191d
p310
sVUin
p311
I0
sVStarFriend
p312
I0
sVStatues
p313
I0
sg275
Nsa(dp314
VUserName
p315
V@@5f1217533bd9345d8d7d37beddec350dbf08ee8ae3c21ee4012a35a63917a0b4
p316
sVCity
p317
g44
sVDisplayName
p318
g44
sVUniFriend
p319
I0
sg242
(dp320
g36
g31
sg37
g38
sg39
g38
sg40
I0
sg61
I0
sg41
(lp321
sg43
g44
sg45
g44
sg70
L3337351302L
sg47
I0
sg48
I0
sg49
g38
sg50
g38
sg51
g44
sg52
g44
sg53
I0
sg54
I0
sg55
I1
sg56
g38
sg57
I0
sg59
I0
sg60
I0
sg58
I0
sg62
g38
sg63
g44
sg64
I0
sg65
g66
sg67
g44
sg68
g69
sg46
I1
sg71
I0
sg72
I0
ssVMemberList
p322
(lp323
sVPYQuanPin
p324
g44
sVRemarkPYInitial
p325
g44
sVSex
p326
I0
sVAppAccountFlag
p327
I0
sVVerifyFlag
p328
I0
sVProvince
p329
g44
sVKeyWord
p330
g44
sVRemarkName
p331
g44
sVPYInitial
p332
g44
sVIsOwner
p333
I1
sVChatRoomId
p334
I0
sVHideInputBarFlag
p335
I0
sVEncryChatRoomId
p336
g44
sVAttrStatus
p337
I0
sVSnsFlag
p338
I0
sVMemberCount
p339
I4
sVOwnerUin
p340
I0
sVAlias
p341
g44
sVSignature
p342
g44
sVContactFlag
p343
I0
sVNickName
p344
VgroupTest
p345
sVRemarkPYQuanPin
p346
g44
sVHeadImgUrl
p347
V/cgi-bin/mmwebwx-bin/webwxgetheadimg?seq=0&username=@@5f1217533bd9345d8d7d37beddec350dbf08ee8ae3c21ee4012a35a63917a0b4&skey=@crypt_83708393_e8e72d05a76f799207de6a78d5fb191d
p348
sVUin
p349
I0
sVStarFriend
p350
I0
sVStatues
p351
I0
sg275
NsasS'nickName'
p352
g66
sS'mpList'
p353
(lp354
(dp355
VUserName
p356
V@d25ed63c4ab9fcc4d6d3e41938abd2ac
p357
sVCity
p358
V\u5609\u5b9a
p359
sVDisplayName
p360
g44
sVUniFriend
p361
I0
sVMemberList
p362
(lp363
sVPYQuanPin
p364
VEVCARDshanghai
p365
sVRemarkPYInitial
p366
g44
sVUin
p367
I0
sVAppAccountFlag
p368
I0
sVVerifyFlag
p369
I24
sVProvince
p370
V\u4e0a\u6d77
p371
sVKeyWord
p372
Vgh_
p373
sVRemarkName
p374
g44
sVPYInitial
p375
VEVCARDSH
p376
sVChatRoomId
p377
I0
sVIsOwner
p378
I0
sVHideInputBarFlag
p379
I0
sVEncryChatRoomId
p380
g44
sVAttrStatus
p381
I0
sVSnsFlag
p382
I0
sVMemberCount
p383
I0
sVOwnerUin
p384
I0
sVAlias
p385
g44
sVSignature
p386
V\u5173\u6ce8EVCARD\u5c0f\u52a9\u624b\uff0c\u53ca\u65f6\u83b7\u53d6\u7528\u8f66\u4fe1\u606f\u53ca\u6700\u65b0\u6d3b\u52a8\u60c5\u51b5
p387
sVContactFlag
p388
I3
sVNickName
p389
VEVCARD\u4e0a\u6d77
p390
sVRemarkPYQuanPin
p391
g44
sVHeadImgUrl
p392
V/cgi-bin/mmwebwx-bin/webwxgeticon?seq=630070060&username=@d25ed63c4ab9fcc4d6d3e41938abd2ac&skey=@crypt_83708393_e8e72d05a76f799207de6a78d5fb191d
p393
sVSex
p394
I0
sVStarFriend
p395
I0
sVStatues
p396
I0
sa(dp397
VUserName
p398
V@86c2b73b7236d5074b885eebeac74c4c
p399
sVCity
p400
V\u6d77\u6dc0
p401
sVDisplayName
p402
g44
sVUniFriend
p403
I0
sVMemberList
p404
(lp405
sVPYQuanPin
p406
Vlilaoshushuoche
p407
sVRemarkPYInitial
p408
g44
sVUin
p409
I0
sVAppAccountFlag
p410
I0
sVVerifyFlag
p411
I8
sVProvince
p412
V\u5317\u4eac
p413
sVKeyWord
p414
Vgh_
p415
sVRemarkName
p416
g44
sVPYInitial
p417
VLLSSC
p418
sVChatRoomId
p419
I0
sVIsOwner
p420
I0
sVHideInputBarFlag
p421
I0
sVEncryChatRoomId
p422
g44
sVAttrStatus
p423
I0
sVSnsFlag
p424
I0
sVMemberCount
p425
I0
sVOwnerUin
p426
I0
sVAlias
p427
g44
sVSignature
p428
V\u636e\u7edf\u8ba1\uff0c\u5173\u6ce8\u7684\u4eba\u670998%\u90fd\u7231\u4e0a\u4e86\u4e8c\u624b\u8f66\u3002
p429
sVContactFlag
p430
I1
sVNickName
p431
V\u674e\u8001\u9f20\u8bf4\u8f66
p432
sVRemarkPYQuanPin
p433
g44
sVHeadImgUrl
p434
V/cgi-bin/mmwebwx-bin/webwxgeticon?seq=631620920&username=@86c2b73b7236d5074b885eebeac74c4c&skey=@crypt_83708393_e8e72d05a76f799207de6a78d5fb191d
p435
sVSex
p436
I0
sVStarFriend
p437
I0
sVStatues
p438
I0
sassS'loginInfo'
p439
(dp440
S'SyncKey'
p441
(dp442
VCount
p443
I4
sVList
p444
(lp445
(dp446
VVal
p447
I631622580
sVKey
p448
I1
sa(dp449
VVal
p450
I631622726
sVKey
p451
I2
sa(dp452
VVal
p453
I631622724
sVKey
p454
I3
sa(dp455
VVal
p456
I1504411561
sVKey
p457
I1000
sassS'syncUrl'
p458
S'https://webpush.wx2.qq.com/cgi-bin/mmwebwx-bin'
p459
sS'skey'
p460
V@crypt_83708393_e8e72d05a76f799207de6a78d5fb191d
p461
sS'wxuin'
p462
V3337351302
p463
sS'synckey'
p464
S'1_631622580|2_631622726|3_631622724|1000_1504411561'
p465
sS'url'
p466
Vhttps://wx2.qq.com/cgi-bin/mmwebwx-bin
p467
sS'pass_ticket'
p468
VU5J4NsWOYHqULAU5wFVYz4WSM1QEky7o%2BbqIPcEDFSJfvOBHE1bFKYrfHuPIGjFF
p469
sS'wxsid'
p470
Vd4JzXCTQxcW7tj0C
p471
sS'User'
p472
g35
sS'InviteStartCount'
p473
I40
sS'fileUrl'
p474
S'https://file.wx2.qq.com/cgi-bin/mmwebwx-bin'
p475
sS'BaseRequest'
p476
(dp477
g70
g463
sS'Skey'
p478
g461
sS'DeviceID'
p479
g469
sS'Sid'
p480
g471
ssS'deviceid'
p481
S'e531640170042144'
p482
ss.