(dp0
S'cookies'
p1
(dp2
S'wxloadtime'
p3
S'1504246596_expired'
p4
sS'webwx_data_ticket'
p5
S'gSd+dgipPVn3q9fBpc8qWqMk'
p6
sS'wxuin'
p7
S'3337351302'
p8
sS'login_frequency'
p9
S'2'
p10
sS'MM_WX_NOTIFY_STATE'
p11
S'1'
p12
sS'MM_WX_SOUND_STATE'
p13
g12
sS'webwx_auth_ticket'
p14
S'CIsBEJvZ/K8FGoABBHxbUUFf8hpNMOfJ4xDwp+PsVHPCI4WJ0VWlFrQA3JdvtTIFjx985DutV4OSKmVFd9ESimslThGuJ6+kwMrUGydt8uy9XwfQP0g0lbYN0kUd09QxbzmrwqORkbTQALYHrok5fYlIUm42OeBhuJxzPgeGwT4Wricc3KzBSp3MGmY='
p15
sS'last_wxuin'
p16
S'3337351302'
p17
sS'webwxuvid'
p18
S'82031f93a38ff01948e0651a468ec4e1dcad75552a9cd8d8549e2045ecc4cd03f7ab5018c0879eeb90043b1dcbf1a36f'
p19
sS'wxpluginkey'
p20
S'1504245398'
p21
sS'wxsid'
p22
S'7YSA+wRuOfJeeZ8J'
p23
sS'mm_lang'
p24
S'zh_CN'
p25
ssS'version'
p26
S'1.2.32'
p27
sS'storage'
p28
(dp29
S'userName'
p30
V@6e760d0b1e55c49af97af6536ddd5ed240fa1ae5cfe56741081eb42b1dcf9587
p31
sS'lastInputUserName'
p32
NsS'memberList'
p33
(lp34
(dp35
S'UserName'
p36
g31
sS'City'
p37
S''
p38
sS'DisplayName'
p39
g38
sS'UniFriend'
p40
I0
sS'OwnerUin'
p41
I0
sS'MemberList'
p42
(lp43
sS'PYQuanPin'
p44
V
p45
sS'RemarkPYInitial'
p46
g45
sS'Uin'
p47
L3337351302L
sS'AppAccountFlag'
p48
I0
sS'VerifyFlag'
p49
I0
sS'Province'
p50
g38
sS'KeyWord'
p51
g38
sS'RemarkName'
p52
g45
sS'PYInitial'
p53
g45
sS'ChatRoomId'
p54
I0
sS'HideInputBarFlag'
p55
I0
sVHeadImgFlag
p56
I1
sS'EncryChatRoomId'
p57
g38
sS'AttrStatus'
p58
I0
sS'SnsFlag'
p59
I0
sS'MemberCount'
p60
I0
sVWebWxPluginSwitch
p61
I0
sS'Alias'
p62
g38
sS'Signature'
p63
g45
sS'ContactFlag'
p64
I0
sS'NickName'
p65
VwxRobot
p66
sS'RemarkPYQuanPin'
p67
g45
sS'HeadImgUrl'
p68
V/cgi-bin/mmwebwx-bin/webwxgeticon?seq=451167505&username=@6e760d0b1e55c49af97af6536ddd5ed240fa1ae5cfe56741081eb42b1dcf9587&skey=@crypt_83708393_108a3603098f76c54d60ac70a719bcfd
p69
sS'Sex'
p70
I1
sS'StarFriend'
p71
I0
sS'Statues'
p72
I0
sa(dp73
VUserName
p74
V@e7910c286784cced4a8a0b890efa2205932e76068bf0db0e6102dcac223f65c5
p75
sVCity
p76
V\u6d1b\u9633
p77
sVDisplayName
p78
g45
sVUniFriend
p79
I0
sVMemberList
p80
(lp81
sVPYQuanPin
p82
VKorn
p83
sVRemarkPYInitial
p84
g45
sVSex
p85
I1
sVAppAccountFlag
p86
I0
sVVerifyFlag
p87
I0
sVProvince
p88
V\u6cb3\u5357
p89
sVKeyWord
p90
g45
sVRemarkName
p91
g45
sVPYInitial
p92
VKORN
p93
sVIsOwner
p94
I0
sVChatRoomId
p95
I0
sVHideInputBarFlag
p96
I0
sVEncryChatRoomId
p97
g45
sVAttrStatus
p98
I33624103
sVSnsFlag
p99
I17
sVMemberCount
p100
I0
sVOwnerUin
p101
I0
sVAlias
p102
g45
sVSignature
p103
V\u5927\u9053\u81f3\u7b80
p104
sVContactFlag
p105
I3
sVNickName
p106
VKorn
p107
sVRemarkPYQuanPin
p108
g45
sVHeadImgUrl
p109
V/cgi-bin/mmwebwx-bin/webwxgeticon?seq=631622459&username=@e7910c286784cced4a8a0b890efa2205932e76068bf0db0e6102dcac223f65c5&skey=@crypt_83708393_108a3603098f76c54d60ac70a719bcfd
p110
sVUin
p111
I0
sVStarFriend
p112
I0
sVStatues
p113
I0
sa(dp114
VUserName
p115
V@4c359fd60e7a4554b94f4a4d05c21da9075c5c0524b12fe1df411e87c0aefbf1
p116
sVCity
p117
V\u5468\u53e3
p118
sVDisplayName
p119
g45
sVUniFriend
p120
I0
sVMemberList
p121
(lp122
sVPYQuanPin
p123
Vzhangxu
p124
sVRemarkPYInitial
p125
g45
sVSex
p126
I1
sVAppAccountFlag
p127
I0
sVVerifyFlag
p128
I0
sVProvince
p129
V\u6cb3\u5357
p130
sVKeyWord
p131
g45
sVRemarkName
p132
g45
sVPYInitial
p133
VZX
p134
sVIsOwner
p135
I0
sVChatRoomId
p136
I0
sVHideInputBarFlag
p137
I0
sVEncryChatRoomId
p138
g45
sVAttrStatus
p139
I102437
sVSnsFlag
p140
I0
sVMemberCount
p141
I0
sVOwnerUin
p142
I0
sVAlias
p143
g45
sVSignature
p144
V\u5443\u5443
p145
sVContactFlag
p146
I3
sVNickName
p147
V\u5f20\u65ed
p148
sVRemarkPYQuanPin
p149
g45
sVHeadImgUrl
p150
V/cgi-bin/mmwebwx-bin/webwxgeticon?seq=631622622&username=@4c359fd60e7a4554b94f4a4d05c21da9075c5c0524b12fe1df411e87c0aefbf1&skey=@crypt_83708393_108a3603098f76c54d60ac70a719bcfd
p151
sVUin
p152
I0
sVStarFriend
p153
I0
sVStatues
p154
I0
sa(dp155
VUserName
p156
V@e7383b3af5f2d2539dc75250f3e0f35f66f32375581fe94227c461ac64c0e86c
p157
sVCity
p158
V\u8679\u53e3
p159
sVDisplayName
p160
g45
sVUniFriend
p161
I0
sVMemberList
p162
(lp163
sVPYQuanPin
p164
Vyi
p165
sVRemarkPYInitial
p166
g45
sVSex
p167
I1
sVAppAccountFlag
p168
I0
sVVerifyFlag
p169
I0
sVProvince
p170
V\u4e0a\u6d77
p171
sVKeyWord
p172
g45
sVRemarkName
p173
g45
sVPYInitial
p174
VY
p175
sVIsOwner
p176
I0
sVChatRoomId
p177
I0
sVHideInputBarFlag
p178
I0
sVEncryChatRoomId
p179
g45
sVAttrStatus
p180
I135269
sVSnsFlag
p181
I17
sVMemberCount
p182
I0
sVOwnerUin
p183
I0
sVAlias
p184
g45
sVSignature
p185
V:-P
p186
sVContactFlag
p187
I3
sVNickName
p188
V\u4e00
p189
sVRemarkPYQuanPin
p190
g45
sVHeadImgUrl
p191
V/cgi-bin/mmwebwx-bin/webwxgeticon?seq=631622603&username=@e7383b3af5f2d2539dc75250f3e0f35f66f32375581fe94227c461ac64c0e86c&skey=@crypt_83708393_108a3603098f76c54d60ac70a719bcfd
p192
sVUin
p193
I0
sVStarFriend
p194
I0
sVStatues
p195
I0
sa(dp196
VUserName
p197
V@e28dcb312136e90a560d93e58ee9750583bf4dcc439f14785fa7554f8ccb39c5
p198
sVCity
p199
g45
sVDisplayName
p200
g45
sVUniFriend
p201
I0
sVMemberList
p202
(lp203
sVPYQuanPin
p204
Vlixizhu
p205
sVRemarkPYInitial
p206
g45
sVSex
p207
I0
sVAppAccountFlag
p208
I0
sVVerifyFlag
p209
I0
sVProvince
p210
g45
sVKeyWord
p211
g45
sVRemarkName
p212
g45
sVPYInitial
p213
VLXZ
p214
sVIsOwner
p215
I0
sVChatRoomId
p216
I0
sVHideInputBarFlag
p217
I0
sVEncryChatRoomId
p218
g45
sVAttrStatus
p219
I4133
sVSnsFlag
p220
I1
sVMemberCount
p221
I0
sVOwnerUin
p222
I0
sVAlias
p223
g45
sVSignature
p224
g45
sVContactFlag
p225
I3
sVNickName
p226
V\u674e\u559c\u7af9
p227
sVRemarkPYQuanPin
p228
g45
sVHeadImgUrl
p229
V/cgi-bin/mmwebwx-bin/webwxgeticon?seq=631620603&username=@e28dcb312136e90a560d93e58ee9750583bf4dcc439f14785fa7554f8ccb39c5&skey=@crypt_83708393_108a3603098f76c54d60ac70a719bcfd
p230
sVUin
p231
I0
sVStarFriend
p232
I0
sVStatues
p233
I0
sasS'chatroomList'
p234
(lp235
(dp236
VUserName
p237
V@@871cbc633e130230db6248f699053a09f0f417581eb2e0ca21af0ef1207acbeb
p238
sVCity
p239
g45
sVDisplayName
p240
g45
sVUniFriend
p241
I0
sVMemberList
p242
(lp243
sVPYQuanPin
p244
g45
sVRemarkPYInitial
p245
g45
sVUin
p246
I0
sVAppAccountFlag
p247
I0
sVVerifyFlag
p248
I0
sVProvince
p249
g45
sVKeyWord
p250
g45
sVRemarkName
p251
g45
sS'self'
p252
(dp253
g36
g31
sg37
g38
sg39
g38
sg40
I0
sg42
(lp254
sg44
g45
sg46
g45
sg70
I1
sg48
I0
sg49
I0
sg50
g38
sg51
g38
sg52
g45
sg53
g45
sg54
I0
sg55
I0
sg56
I1
sg57
g38
sg58
I0
sg61
I0
sg59
I0
sg60
I0
sg41
I0
sg62
g38
sg63
g45
sg64
I0
sg65
g66
sg67
g45
sg68
g69
sg47
L3337351302L
sg71
I0
sg72
I0
ssVChatRoomId
p255
I0
sVIsOwner
p256
I1
sVHideInputBarFlag
p257
I0
sVEncryChatRoomId
p258
g45
sVAttrStatus
p259
I0
sVStatues
p260
I0
sVSnsFlag
p261
I0
sVMemberCount
p262
I4
sVOwnerUin
p263
I0
sVAlias
p264
g45
sVSignature
p265
g45
sVContactFlag
p266
I0
sVNickName
p267
VgroupTest
p268
sVRemarkPYQuanPin
p269
g45
sVHeadImgUrl
p270
V/cgi-bin/mmwebwx-bin/webwxgetheadimg?seq=0&username=@@871cbc633e130230db6248f699053a09f0f417581eb2e0ca21af0ef1207acbeb&skey=@crypt_83708393_108a3603098f76c54d60ac70a719bcfd
p271
sVSex
p272
I0
sVStarFriend
p273
I0
sVPYInitial
p274
g45
sS'isAdmin'
p275
Nsa(dp276
VUserName
p277
V@@de3d477355c4fd477999469454ac579e1cd3d6bca84846171d75558852c7dc35
p278
sVCity
p279
g45
sVDisplayName
p280
g45
sVUniFriend
p281
I0
sVMemberList
p282
(lp283
sVPYQuanPin
p284
g45
sVRemarkPYInitial
p285
g45
sVUin
p286
I0
sVAppAccountFlag
p287
I0
sVVerifyFlag
p288
I0
sVProvince
p289
g45
sVKeyWord
p290
g45
sVRemarkName
p291
g45
sg252
(dp292
g36
g31
sg37
g38
sg39
g38
sg40
I0
sg42
(lp293
sg44
g45
sg46
g45
sg70
I1
sg48
I0
sg49
I0
sg50
g38
sg51
g38
sg52
g45
sg53
g45
sg54
I0
sg55
I0
sg56
I1
sg57
g38
sg58
I0
sg61
I0
sg59
I0
sg60
I0
sg41
I0
sg62
g38
sg63
g45
sg64
I0
sg65
g66
sg67
g45
sg68
g69
sg47
L3337351302L
sg71
I0
sg72
I0
ssVChatRoomId
p294
I0
sVIsOwner
p295
I0
sVHideInputBarFlag
p296
I0
sVEncryChatRoomId
p297
g45
sVAttrStatus
p298
I0
sVStatues
p299
I0
sVSnsFlag
p300
I0
sVMemberCount
p301
I197
sVOwnerUin
p302
I0
sVAlias
p303
g45
sVSignature
p304
g45
sVContactFlag
p305
I0
sVNickName
p306
V\u8d3a\u592a\u6069(\u5317\u4eac)\u7269\u8054\u79d1\u6280\u7fa4
p307
sVRemarkPYQuanPin
p308
g45
sVHeadImgUrl
p309
V/cgi-bin/mmwebwx-bin/webwxgetheadimg?seq=0&username=@@de3d477355c4fd477999469454ac579e1cd3d6bca84846171d75558852c7dc35&skey=@crypt_83708393_108a3603098f76c54d60ac70a719bcfd
p310
sVSex
p311
I0
sVStarFriend
p312
I0
sVPYInitial
p313
g45
sg275
NsasS'nickName'
p314
g66
sS'mpList'
p315
(lp316
(dp317
VUserName
p318
V@78bac9649bdd0d68dfa18ac083f4b772
p319
sVCity
p320
V\u5609\u5b9a
p321
sVDisplayName
p322
g45
sVUniFriend
p323
I0
sVMemberList
p324
(lp325
sVPYQuanPin
p326
VEVCARDshanghai
p327
sVRemarkPYInitial
p328
g45
sVSex
p329
I0
sVAppAccountFlag
p330
I0
sVVerifyFlag
p331
I24
sVProvince
p332
V\u4e0a\u6d77
p333
sVKeyWord
p334
Vgh_
p335
sVRemarkName
p336
g45
sVPYInitial
p337
VEVCARDSH
p338
sVIsOwner
p339
I0
sVChatRoomId
p340
I0
sVHideInputBarFlag
p341
I0
sVEncryChatRoomId
p342
g45
sVAttrStatus
p343
I0
sVSnsFlag
p344
I0
sVMemberCount
p345
I0
sVOwnerUin
p346
I0
sVAlias
p347
g45
sVSignature
p348
V\u5173\u6ce8EVCARD\u5c0f\u52a9\u624b\uff0c\u53ca\u65f6\u83b7\u53d6\u7528\u8f66\u4fe1\u606f\u53ca\u6700\u65b0\u6d3b\u52a8\u60c5\u51b5
p349
sVContactFlag
p350
I3
sVNickName
p351
VEVCARD\u4e0a\u6d77
p352
sVRemarkPYQuanPin
p353
g45
sVHeadImgUrl
p354
V/cgi-bin/mmwebwx-bin/webwxgeticon?seq=630070060&username=@78bac9649bdd0d68dfa18ac083f4b772&skey=@crypt_83708393_108a3603098f76c54d60ac70a719bcfd
p355
sVUin
p356
I0
sVStarFriend
p357
I0
sVStatues
p358
I0
sa(dp359
VUserName
p360
V@a92d6464dea9eb0dced49891e2132748
p361
sVCity
p362
V\u6d77\u6dc0
p363
sVDisplayName
p364
g45
sVUniFriend
p365
I0
sVMemberList
p366
(lp367
sVPYQuanPin
p368
Vlilaoshushuoche
p369
sVRemarkPYInitial
p370
g45
sVSex
p371
I0
sVAppAccountFlag
p372
I0
sVVerifyFlag
p373
I8
sVProvince
p374
V\u5317\u4eac
p375
sVKeyWord
p376
Vgh_
p377
sVRemarkName
p378
g45
sVPYInitial
p379
VLLSSC
p380
sVIsOwner
p381
I0
sVChatRoomId
p382
I0
sVHideInputBarFlag
p383
I0
sVEncryChatRoomId
p384
g45
sVAttrStatus
p385
I0
sVSnsFlag
p386
I0
sVMemberCount
p387
I0
sVOwnerUin
p388
I0
sVAlias
p389
g45
sVSignature
p390
V\u636e\u7edf\u8ba1\uff0c\u5173\u6ce8\u7684\u4eba\u670998%\u90fd\u7231\u4e0a\u4e86\u4e8c\u624b\u8f66\u3002
p391
sVContactFlag
p392
I1
sVNickName
p393
V\u674e\u8001\u9f20\u8bf4\u8f66
p394
sVRemarkPYQuanPin
p395
g45
sVHeadImgUrl
p396
V/cgi-bin/mmwebwx-bin/webwxgeticon?seq=631620920&username=@a92d6464dea9eb0dced49891e2132748&skey=@crypt_83708393_108a3603098f76c54d60ac70a719bcfd
p397
sVUin
p398
I0
sVStarFriend
p399
I0
sVStatues
p400
I0
sassS'loginInfo'
p401
(dp402
S'SyncKey'
p403
(dp404
VCount
p405
I8
sVList
p406
(lp407
(dp408
VVal
p409
I631622580
sVKey
p410
I1
sa(dp411
VVal
p412
I631622710
sVKey
p413
I2
sa(dp414
VVal
p415
I631622694
sVKey
p416
I3
sa(dp417
VVal
p418
I631622648
sVKey
p419
I11
sa(dp420
VVal
p421
I631620041
sVKey
p422
I13
sa(dp423
VVal
p424
I1504247181
sVKey
p425
I201
sa(dp426
VVal
p427
I1504245398
sVKey
p428
I1000
sa(dp429
VVal
p430
I1504227992
sVKey
p431
I1001
sassS'syncUrl'
p432
S'https://webpush.wx2.qq.com/cgi-bin/mmwebwx-bin'
p433
sS'skey'
p434
V@crypt_83708393_108a3603098f76c54d60ac70a719bcfd
p435
sS'wxuin'
p436
V3337351302
p437
sS'synckey'
p438
S'1_631622580|2_631622710|3_631622694|11_631622648|13_631620041|201_1504247181|1000_1504245398|1001_1504227992'
p439
sS'url'
p440
Vhttps://wx2.qq.com/cgi-bin/mmwebwx-bin
p441
sS'pass_ticket'
p442
VNEnGnckEA1yrGxaPBjfefCu0NUiwZ4ZNikDW1Oz56roYl5ortJ6vT5NWrT7g0JfA
p443
sS'wxsid'
p444
V7YSA+wRuOfJeeZ8J
p445
sS'BaseRequest'
p446
(dp447
S'Sid'
p448
g445
sS'Skey'
p449
g435
sS'DeviceID'
p450
g443
sg47
g437
ssS'User'
p451
g35
sS'fileUrl'
p452
S'https://file.wx2.qq.com/cgi-bin/mmwebwx-bin'
p453
sS'InviteStartCount'
p454
I40
sS'deviceid'
p455
S'e748537359098536'
p456
ss.